target datalayout = "e-m:e-p270:32:32-p271:32:32-p272:64:64-i64:64-i128:128-f80:128-n8:16:32:64-S128"
target triple = "x86_64-pc-linux-gnu"

%struct.aiMaterial = type { ptr, i32, i32 }
%struct.aiMaterialProperty = type { %struct.aiString, i32, i32, i32, i32, ptr }
%struct.aiString = type { i32, [1024 x i8] }

@.str.4 = private unnamed_addr constant [10 x i8] c"$tex.file\00", align 1

; Function Attrs: inlinehint mustprogress nounwind uwtable
define linkonce_odr noundef nonnull align 4 dereferenceable(4) ptr @_ZSt3maxIjERKT_S2_S2_(ptr noundef nonnull align 4 dereferenceable(4) %0, ptr noundef nonnull align 4 dereferenceable(4) %1) #4 comdat {
  %3 = alloca ptr, align 8
  %4 = alloca ptr, align 8
  %5 = alloca ptr, align 8
  store ptr %0, ptr %4, align 8
  store ptr %1, ptr %5, align 8
  %6 = load ptr, ptr %4, align 8
  %7 = load i32, ptr %6, align 4
  %8 = load ptr, ptr %5, align 8
  %9 = load i32, ptr %8, align 4
  %10 = icmp ult i32 %7, %9
  br i1 %10, label %11, label %13

11:                                               ; preds = %2
  %12 = load ptr, ptr %5, align 8
  store ptr %12, ptr %3, align 8
  br label %15

13:                                               ; preds = %2
  %14 = load ptr, ptr %4, align 8
  store ptr %14, ptr %3, align 8
  br label %15

15:                                               ; preds = %13, %11
  %16 = load ptr, ptr %3, align 8
  ret ptr %16
}

; Function Attrs: mustprogress uwtable
define i32 @aiGetMaterialTextureCount(ptr noundef %0, i32 noundef %1) #3 {
  %3 = alloca ptr, align 8
  %4 = alloca i32, align 4
  %5 = alloca i32, align 4
  %6 = alloca i32, align 4
  %7 = alloca ptr, align 8
  %8 = alloca i32, align 4
  store ptr %0, ptr %3, align 8
  store i32 %1, ptr %4, align 4
  call void @llvm.lifetime.start.p0(i64 4, ptr %5) #17
  store i32 0, ptr %5, align 4
  call void @llvm.lifetime.start.p0(i64 4, ptr %6) #17
  store i32 0, ptr %6, align 4
  br label %9

9:                                                ; preds = %47, %2
  %10 = load i32, ptr %6, align 4
  %11 = load ptr, ptr %3, align 8
  %12 = getelementptr inbounds nuw %struct.aiMaterial, ptr %11, i32 0, i32 1
  %13 = load i32, ptr %12, align 8
  %14 = icmp ult i32 %10, %13
  br i1 %14, label %16, label %15

15:                                               ; preds = %9
  call void @llvm.lifetime.end.p0(i64 4, ptr %6) #17
  br label %50

16:                                               ; preds = %9
  call void @llvm.lifetime.start.p0(i64 8, ptr %7) #17
  %17 = load ptr, ptr %3, align 8
  %18 = getelementptr inbounds nuw %struct.aiMaterial, ptr %17, i32 0, i32 0
  %19 = load ptr, ptr %18, align 8
  %20 = load i32, ptr %6, align 4
  %21 = zext i32 %20 to i64
  %22 = getelementptr inbounds nuw ptr, ptr %19, i64 %21
  %23 = load ptr, ptr %22, align 8
  store ptr %23, ptr %7, align 8
  %24 = load ptr, ptr %7, align 8
  %25 = icmp ne ptr %24, null
  br i1 %25, label %26, label %46

26:                                               ; preds = %16
  %27 = load ptr, ptr %7, align 8
  %28 = getelementptr inbounds nuw %struct.aiMaterialProperty, ptr %27, i32 0, i32 0
  %29 = getelementptr inbounds nuw %struct.aiString, ptr %28, i32 0, i32 1
  %30 = getelementptr inbounds [1024 x i8], ptr %29, i64 0, i64 0
  %31 = call i32 @strcmp(ptr noundef %30, ptr noundef @.str.4) #18
  %32 = icmp eq i32 0, %31
  br i1 %32, label %33, label %46

33:                                               ; preds = %26
  %34 = load ptr, ptr %7, align 8
  %35 = getelementptr inbounds nuw %struct.aiMaterialProperty, ptr %34, i32 0, i32 1
  %36 = load i32, ptr %35, align 4
  %37 = load i32, ptr %4, align 4
  %38 = icmp eq i32 %36, %37
  br i1 %38, label %39, label %46

39:                                               ; preds = %33
  call void @llvm.lifetime.start.p0(i64 4, ptr %8) #17
  %40 = load ptr, ptr %7, align 8
  %41 = getelementptr inbounds nuw %struct.aiMaterialProperty, ptr %40, i32 0, i32 2
  %42 = load i32, ptr %41, align 8
  %43 = add i32 %42, 1
  store i32 %43, ptr %8, align 4
  %44 = call noundef nonnull align 4 dereferenceable(4) ptr @_ZSt3maxIjERKT_S2_S2_(ptr noundef nonnull align 4 dereferenceable(4) %5, ptr noundef nonnull align 4 dereferenceable(4) %8)
  %45 = load i32, ptr %44, align 4
  store i32 %45, ptr %5, align 4
  call void @llvm.lifetime.end.p0(i64 4, ptr %8) #17
  br label %46

46:                                               ; preds = %39, %33, %26, %16
  call void @llvm.lifetime.end.p0(i64 8, ptr %7) #17
  br label %47

47:                                               ; preds = %46
  %48 = load i32, ptr %6, align 4
  %49 = add i32 %48, 1
  store i32 %49, ptr %6, align 4
  br label %9, !llvm.loop !18

50:                                               ; preds = %15
  %51 = load i32, ptr %5, align 4
  call void @llvm.lifetime.end.p0(i64 4, ptr %5) #17
  ret i32 %51
}