; Function Attrs: mustprogress nofree nounwind willreturn memory(read, inaccessiblemem: none) uwtable
define i32 @aiGetMaterialTextureCount(ptr noundef readonly captures(none) %0, i32 noundef %1) local_unnamed_addr #7 {
  %3 = getelementptr inbounds nuw i8, ptr %0, i64 8
  %4 = load i32, ptr %3, align 8
  %.not17 = icmp eq i32 %4, 0
  br i1 %.not17, label %._crit_edge, label %.lr.ph

.lr.ph:                                           ; preds = %2
  %5 = load ptr, ptr %0, align 8
  %wide.trip.count = zext i32 %4 to i64
  br label %6

._crit_edge:                                      ; preds = %21, %2
  %.014.lcssa = phi i32 [ 0, %2 ], [ %.1, %21 ]
  ret i32 %.014.lcssa

6:                                                ; preds = %.lr.ph, %21
  %indvars.iv = phi i64 [ 0, %.lr.ph ], [ %indvars.iv.next, %21 ]
  %.01415 = phi i32 [ 0, %.lr.ph ], [ %.1, %21 ]
  %7 = getelementptr inbounds nuw ptr, ptr %5, i64 %indvars.iv
  %8 = load ptr, ptr %7, align 8
  %.not = icmp eq ptr %8, null
  br i1 %.not, label %21, label %9

9:                                                ; preds = %6
  %10 = getelementptr inbounds nuw i8, ptr %8, i64 4
  %11 = tail call i32 @strcmp(ptr noundef nonnull dereferenceable(1) %10, ptr noundef nonnull dereferenceable(10) @.str.4) #23
  %12 = icmp eq i32 %11, 0
  br i1 %12, label %13, label %21

13:                                               ; preds = %9
  %14 = getelementptr inbounds nuw i8, ptr %8, i64 1028
  %15 = load i32, ptr %14, align 4
  %16 = icmp eq i32 %15, %1
  br i1 %16, label %17, label %21

17:                                               ; preds = %13
  %18 = getelementptr inbounds nuw i8, ptr %8, i64 1032
  %19 = load i32, ptr %18, align 8
  %20 = add i32 %19, 1
  %.sroa.speculated = tail call i32 @llvm.umax.i32(i32 %.01415, i32 %20)
  br label %21

21:                                               ; preds = %17, %13, %9, %6
  %.1 = phi i32 [ %.01415, %6 ], [ %.sroa.speculated, %17 ], [ %.01415, %13 ], [ %.01415, %9 ]
  %indvars.iv.next = add nuw nsw i64 %indvars.iv, 1
  %exitcond.not = icmp eq i64 %indvars.iv.next, %wide.trip.count
  br i1 %exitcond.not, label %._crit_edge, label %6, !llvm.loop !17
}